target datalayout = "e-m:e-p270:32:32-p271:32:32-p272:64:64-i64:64-i128:128-f80:128-n8:16:32:64-S128"
target triple = "x86_64-pc-linux-gnu"

@.str.22 = private unnamed_addr constant [29 x i8] c"extradata size %u too large\0A\00", align 1

; Function Attrs: nounwind uwtable
define internal i32 @rm_read_extradata(ptr noundef %0, ptr noundef %1, ptr noundef %2, i32 noundef %3) #0 {
  %5 = alloca i32, align 4
  %6 = alloca ptr, align 8
  %7 = alloca ptr, align 8
  %8 = alloca ptr, align 8
  %9 = alloca i32, align 4
  store ptr %0, ptr %6, align 8, !tbaa !18
  store ptr %1, ptr %7, align 8, !tbaa !20
  store ptr %2, ptr %8, align 8, !tbaa !84
  store i32 %3, ptr %9, align 4, !tbaa !24
  %10 = load i32, ptr %9, align 4, !tbaa !24
  %11 = icmp uge i32 %10, 16777216
  br i1 %11, label %12, label %15

12:                                               ; preds = %4
  %13 = load ptr, ptr %6, align 8, !tbaa !18
  %14 = load i32, ptr %9, align 4, !tbaa !24
  call void (ptr, i32, ptr, ...) @av_log(ptr noundef %13, i32 noundef 16, ptr noundef @.str.22, i32 noundef %14)
  store i32 -1, ptr %5, align 4
  br label %21

15:                                               ; preds = %4
  %16 = load ptr, ptr %6, align 8, !tbaa !18
  %17 = load ptr, ptr %8, align 8, !tbaa !84
  %18 = load ptr, ptr %7, align 8, !tbaa !20
  %19 = load i32, ptr %9, align 4, !tbaa !24
  %20 = call i32 @ff_get_extradata(ptr noundef %16, ptr noundef %17, ptr noundef %18, i32 noundef %19)
  store i32 %20, ptr %5, align 4
  br label %21

21:                                               ; preds = %15, %12
  %22 = load i32, ptr %5, align 4
  ret i32 %22
}