; Function Attrs: nounwind uwtable
define internal fastcc i32 @rm_read_extradata(ptr noundef %0, ptr noundef %1, ptr noundef %2, i32 noundef %3) unnamed_addr #0 {
  %5 = icmp ugt i32 %3, 16777215
  br i1 %5, label %6, label %7

6:                                                ; preds = %4
  tail call void (ptr, i32, ptr, ...) @av_log(ptr noundef %0, i32 noundef 16, ptr noundef nonnull @.str.22, i32 noundef %3) #12
  br label %9

7:                                                ; preds = %4
  %8 = tail call i32 @ff_get_extradata(ptr noundef %0, ptr noundef %2, ptr noundef %1, i32 noundef %3) #12
  br label %9

9:                                                ; preds = %7, %6
  %.0 = phi i32 [ -1, %6 ], [ %8, %7 ]
  ret i32 %.0
}